target datalayout = "e-m:e-p270:32:32-p271:32:32-p272:64:64-i64:64-i128:128-f80:128-n8:16:32:64-S128"
target triple = "x86_64-pc-linux-gnu"

@.str.6 = private unnamed_addr constant [12 x i8] c"getaddrinfo\00", align 1
@.str.8 = private unnamed_addr constant [12 x i8] c"getnameinfo\00", align 1
@rb_cAddrinfo = external global i64, align 8
@rsock_init_addrinfo.rbimpl_id = internal global i64 0, align 8
@.str.54 = private unnamed_addr constant [8 x i8] c"timeout\00", align 1
@id_timeout = internal global i64 0, align 8
@.str.55 = private unnamed_addr constant [9 x i8] c"Addrinfo\00", align 1
@rb_cObject = external global i64, align 8
@.str.56 = private unnamed_addr constant [11 x i8] c"initialize\00", align 1
@.str.57 = private unnamed_addr constant [8 x i8] c"inspect\00", align 1
@.str.58 = private unnamed_addr constant [17 x i8] c"inspect_sockaddr\00", align 1
@.str.59 = private unnamed_addr constant [3 x i8] c"ip\00", align 1
@.str.60 = private unnamed_addr constant [4 x i8] c"tcp\00", align 1
@.str.61 = private unnamed_addr constant [4 x i8] c"udp\00", align 1
@.str.62 = private unnamed_addr constant [5 x i8] c"unix\00", align 1
@.str.63 = private unnamed_addr constant [8 x i8] c"afamily\00", align 1
@.str.64 = private unnamed_addr constant [8 x i8] c"pfamily\00", align 1
@.str.65 = private unnamed_addr constant [9 x i8] c"socktype\00", align 1
@.str.66 = private unnamed_addr constant [9 x i8] c"protocol\00", align 1
@.str.67 = private unnamed_addr constant [10 x i8] c"canonname\00", align 1
@.str.68 = private unnamed_addr constant [6 x i8] c"ipv4?\00", align 1
@.str.69 = private unnamed_addr constant [6 x i8] c"ipv6?\00", align 1
@.str.70 = private unnamed_addr constant [6 x i8] c"unix?\00", align 1
@.str.71 = private unnamed_addr constant [4 x i8] c"ip?\00", align 1
@.str.72 = private unnamed_addr constant [10 x i8] c"ip_unpack\00", align 1
@.str.73 = private unnamed_addr constant [11 x i8] c"ip_address\00", align 1
@.str.74 = private unnamed_addr constant [8 x i8] c"ip_port\00", align 1
@.str.75 = private unnamed_addr constant [14 x i8] c"ipv4_private?\00", align 1
@.str.76 = private unnamed_addr constant [15 x i8] c"ipv4_loopback?\00", align 1
@.str.77 = private unnamed_addr constant [16 x i8] c"ipv4_multicast?\00", align 1
@.str.78 = private unnamed_addr constant [18 x i8] c"ipv6_unspecified?\00", align 1
@.str.79 = private unnamed_addr constant [15 x i8] c"ipv6_loopback?\00", align 1
@.str.80 = private unnamed_addr constant [16 x i8] c"ipv6_multicast?\00", align 1
@.str.81 = private unnamed_addr constant [16 x i8] c"ipv6_linklocal?\00", align 1
@.str.82 = private unnamed_addr constant [16 x i8] c"ipv6_sitelocal?\00", align 1
@.str.83 = private unnamed_addr constant [19 x i8] c"ipv6_unique_local?\00", align 1
@.str.84 = private unnamed_addr constant [15 x i8] c"ipv6_v4mapped?\00", align 1
@.str.85 = private unnamed_addr constant [15 x i8] c"ipv6_v4compat?\00", align 1
@.str.86 = private unnamed_addr constant [19 x i8] c"ipv6_mc_nodelocal?\00", align 1
@.str.87 = private unnamed_addr constant [19 x i8] c"ipv6_mc_linklocal?\00", align 1
@.str.88 = private unnamed_addr constant [19 x i8] c"ipv6_mc_sitelocal?\00", align 1
@.str.89 = private unnamed_addr constant [18 x i8] c"ipv6_mc_orglocal?\00", align 1
@.str.90 = private unnamed_addr constant [16 x i8] c"ipv6_mc_global?\00", align 1
@.str.91 = private unnamed_addr constant [13 x i8] c"ipv6_to_ipv4\00", align 1
@.str.92 = private unnamed_addr constant [10 x i8] c"unix_path\00", align 1
@.str.93 = private unnamed_addr constant [12 x i8] c"to_sockaddr\00", align 1
@.str.94 = private unnamed_addr constant [5 x i8] c"to_s\00", align 1
@.str.95 = private unnamed_addr constant [13 x i8] c"marshal_dump\00", align 1
@.str.96 = private unnamed_addr constant [13 x i8] c"marshal_load\00", align 1

; Function Attrs: inlinehint nounwind sspstrong willreturn memory(read) uwtable
define internal i64 @rb_intern_const(ptr noundef nonnull %0) #13 {
  %2 = alloca ptr, align 8
  %3 = alloca i64, align 8
  store ptr %0, ptr %2, align 8, !tbaa !30
  call void @llvm.lifetime.start.p0(i64 8, ptr %3) #24
  %4 = load ptr, ptr %2, align 8, !tbaa !30
  %5 = call i64 @strlen(ptr noundef %4) #30
  store i64 %5, ptr %3, align 8, !tbaa !31
  %6 = load ptr, ptr %2, align 8, !tbaa !30
  %7 = load i64, ptr %3, align 8, !tbaa !31
  %8 = call i64 @rb_intern2(ptr noundef %6, i64 noundef %7)
  call void @llvm.lifetime.end.p0(i64 8, ptr %3) #24
  ret i64 %8
}

; Function Attrs: inlinehint nounwind sspstrong memory(argmem: readwrite, inaccessiblemem: readwrite) uwtable
define internal i64 @rbimpl_intern_const(ptr noundef nonnull %0, ptr noundef nonnull %1) #4 {
  %3 = alloca ptr, align 8
  %4 = alloca ptr, align 8
  store ptr %0, ptr %3, align 8, !tbaa !24
  store ptr %1, ptr %4, align 8, !tbaa !30
  br label %5

5:                                                ; preds = %10, %2
  %6 = load ptr, ptr %3, align 8, !tbaa !24
  %7 = load i64, ptr %6, align 8, !tbaa !31
  %8 = icmp ne i64 %7, 0
  %9 = xor i1 %8, true
  br i1 %9, label %10, label %14

10:                                               ; preds = %5
  %11 = load ptr, ptr %4, align 8, !tbaa !30
  %12 = call i64 @rb_intern_const(ptr noundef %11) #30
  %13 = load ptr, ptr %3, align 8, !tbaa !24
  store i64 %12, ptr %13, align 8, !tbaa !31
  br label %5, !llvm.loop !173

14:                                               ; preds = %5
  %15 = load ptr, ptr %3, align 8, !tbaa !24
  %16 = load i64, ptr %15, align 8, !tbaa !31
  ret i64 %16
}

; Function Attrs: nounwind sspstrong uwtable
define void @rsock_init_addrinfo() #0 {
  %1 = alloca i64, align 8
  %2 = call i64 @rbimpl_intern_const(ptr noundef @rsock_init_addrinfo.rbimpl_id, ptr noundef @.str.54) #25
  store i64 %2, ptr %1, align 8, !tbaa !31
  %3 = load i64, ptr %1, align 8, !tbaa !31
  store i64 %3, ptr @id_timeout, align 8, !tbaa !31
  %4 = load i64, ptr @rb_cObject, align 8, !tbaa !31
  %5 = call i64 @rb_define_class(ptr noundef @.str.55, i64 noundef %4)
  store i64 %5, ptr @rb_cAddrinfo, align 8, !tbaa !31
  %6 = load i64, ptr @rb_cAddrinfo, align 8, !tbaa !31
  call void @rb_define_alloc_func(i64 noundef %6, ptr noundef @addrinfo_s_allocate)
  %7 = load i64, ptr @rb_cAddrinfo, align 8, !tbaa !31
  call void @rb_define_method(i64 noundef %7, ptr noundef @.str.56, ptr noundef @addrinfo_initialize, i32 noundef -1)
  %8 = load i64, ptr @rb_cAddrinfo, align 8, !tbaa !31
  call void @rb_define_method(i64 noundef %8, ptr noundef @.str.57, ptr noundef @addrinfo_inspect, i32 noundef 0)
  %9 = load i64, ptr @rb_cAddrinfo, align 8, !tbaa !31
  call void @rb_define_method(i64 noundef %9, ptr noundef @.str.58, ptr noundef @rsock_addrinfo_inspect_sockaddr, i32 noundef 0)
  %10 = load i64, ptr @rb_cAddrinfo, align 8, !tbaa !31
  call void @rb_define_singleton_method(i64 noundef %10, ptr noundef @.str.6, ptr noundef @addrinfo_s_getaddrinfo, i32 noundef -1)
  %11 = load i64, ptr @rb_cAddrinfo, align 8, !tbaa !31
  call void @rb_define_singleton_method(i64 noundef %11, ptr noundef @.str.59, ptr noundef @addrinfo_s_ip, i32 noundef 1)
  %12 = load i64, ptr @rb_cAddrinfo, align 8, !tbaa !31
  call void @rb_define_singleton_method(i64 noundef %12, ptr noundef @.str.60, ptr noundef @addrinfo_s_tcp, i32 noundef 2)
  %13 = load i64, ptr @rb_cAddrinfo, align 8, !tbaa !31
  call void @rb_define_singleton_method(i64 noundef %13, ptr noundef @.str.61, ptr noundef @addrinfo_s_udp, i32 noundef 2)
  %14 = load i64, ptr @rb_cAddrinfo, align 8, !tbaa !31
  call void @rb_define_singleton_method(i64 noundef %14, ptr noundef @.str.62, ptr noundef @addrinfo_s_unix, i32 noundef -1)
  %15 = load i64, ptr @rb_cAddrinfo, align 8, !tbaa !31
  call void @rb_define_method(i64 noundef %15, ptr noundef @.str.63, ptr noundef @addrinfo_afamily, i32 noundef 0)
  %16 = load i64, ptr @rb_cAddrinfo, align 8, !tbaa !31
  call void @rb_define_method(i64 noundef %16, ptr noundef @.str.64, ptr noundef @addrinfo_pfamily, i32 noundef 0)
  %17 = load i64, ptr @rb_cAddrinfo, align 8, !tbaa !31
  call void @rb_define_method(i64 noundef %17, ptr noundef @.str.65, ptr noundef @addrinfo_socktype, i32 noundef 0)
  %18 = load i64, ptr @rb_cAddrinfo, align 8, !tbaa !31
  call void @rb_define_method(i64 noundef %18, ptr noundef @.str.66, ptr noundef @addrinfo_protocol, i32 noundef 0)
  %19 = load i64, ptr @rb_cAddrinfo, align 8, !tbaa !31
  call void @rb_define_method(i64 noundef %19, ptr noundef @.str.67, ptr noundef @addrinfo_canonname, i32 noundef 0)
  %20 = load i64, ptr @rb_cAddrinfo, align 8, !tbaa !31
  call void @rb_define_method(i64 noundef %20, ptr noundef @.str.68, ptr noundef @addrinfo_ipv4_p, i32 noundef 0)
  %21 = load i64, ptr @rb_cAddrinfo, align 8, !tbaa !31
  call void @rb_define_method(i64 noundef %21, ptr noundef @.str.69, ptr noundef @addrinfo_ipv6_p, i32 noundef 0)
  %22 = load i64, ptr @rb_cAddrinfo, align 8, !tbaa !31
  call void @rb_define_method(i64 noundef %22, ptr noundef @.str.70, ptr noundef @addrinfo_unix_p, i32 noundef 0)
  %23 = load i64, ptr @rb_cAddrinfo, align 8, !tbaa !31
  call void @rb_define_method(i64 noundef %23, ptr noundef @.str.71, ptr noundef @addrinfo_ip_p, i32 noundef 0)
  %24 = load i64, ptr @rb_cAddrinfo, align 8, !tbaa !31
  call void @rb_define_method(i64 noundef %24, ptr noundef @.str.72, ptr noundef @addrinfo_ip_unpack, i32 noundef 0)
  %25 = load i64, ptr @rb_cAddrinfo, align 8, !tbaa !31
  call void @rb_define_method(i64 noundef %25, ptr noundef @.str.73, ptr noundef @addrinfo_ip_address, i32 noundef 0)
  %26 = load i64, ptr @rb_cAddrinfo, align 8, !tbaa !31
  call void @rb_define_method(i64 noundef %26, ptr noundef @.str.74, ptr noundef @addrinfo_ip_port, i32 noundef 0)
  %27 = load i64, ptr @rb_cAddrinfo, align 8, !tbaa !31
  call void @rb_define_method(i64 noundef %27, ptr noundef @.str.75, ptr noundef @addrinfo_ipv4_private_p, i32 noundef 0)
  %28 = load i64, ptr @rb_cAddrinfo, align 8, !tbaa !31
  call void @rb_define_method(i64 noundef %28, ptr noundef @.str.76, ptr noundef @addrinfo_ipv4_loopback_p, i32 noundef 0)
  %29 = load i64, ptr @rb_cAddrinfo, align 8, !tbaa !31
  call void @rb_define_method(i64 noundef %29, ptr noundef @.str.77, ptr noundef @addrinfo_ipv4_multicast_p, i32 noundef 0)
  %30 = load i64, ptr @rb_cAddrinfo, align 8, !tbaa !31
  call void @rb_define_method(i64 noundef %30, ptr noundef @.str.78, ptr noundef @addrinfo_ipv6_unspecified_p, i32 noundef 0)
  %31 = load i64, ptr @rb_cAddrinfo, align 8, !tbaa !31
  call void @rb_define_method(i64 noundef %31, ptr noundef @.str.79, ptr noundef @addrinfo_ipv6_loopback_p, i32 noundef 0)
  %32 = load i64, ptr @rb_cAddrinfo, align 8, !tbaa !31
  call void @rb_define_method(i64 noundef %32, ptr noundef @.str.80, ptr noundef @addrinfo_ipv6_multicast_p, i32 noundef 0)
  %33 = load i64, ptr @rb_cAddrinfo, align 8, !tbaa !31
  call void @rb_define_method(i64 noundef %33, ptr noundef @.str.81, ptr noundef @addrinfo_ipv6_linklocal_p, i32 noundef 0)
  %34 = load i64, ptr @rb_cAddrinfo, align 8, !tbaa !31
  call void @rb_define_method(i64 noundef %34, ptr noundef @.str.82, ptr noundef @addrinfo_ipv6_sitelocal_p, i32 noundef 0)
  %35 = load i64, ptr @rb_cAddrinfo, align 8, !tbaa !31
  call void @rb_define_method(i64 noundef %35, ptr noundef @.str.83, ptr noundef @addrinfo_ipv6_unique_local_p, i32 noundef 0)
  %36 = load i64, ptr @rb_cAddrinfo, align 8, !tbaa !31
  call void @rb_define_method(i64 noundef %36, ptr noundef @.str.84, ptr noundef @addrinfo_ipv6_v4mapped_p, i32 noundef 0)
  %37 = load i64, ptr @rb_cAddrinfo, align 8, !tbaa !31
  call void @rb_define_method(i64 noundef %37, ptr noundef @.str.85, ptr noundef @addrinfo_ipv6_v4compat_p, i32 noundef 0)
  %38 = load i64, ptr @rb_cAddrinfo, align 8, !tbaa !31
  call void @rb_define_method(i64 noundef %38, ptr noundef @.str.86, ptr noundef @addrinfo_ipv6_mc_nodelocal_p, i32 noundef 0)
  %39 = load i64, ptr @rb_cAddrinfo, align 8, !tbaa !31
  call void @rb_define_method(i64 noundef %39, ptr noundef @.str.87, ptr noundef @addrinfo_ipv6_mc_linklocal_p, i32 noundef 0)
  %40 = load i64, ptr @rb_cAddrinfo, align 8, !tbaa !31
  call void @rb_define_method(i64 noundef %40, ptr noundef @.str.88, ptr noundef @addrinfo_ipv6_mc_sitelocal_p, i32 noundef 0)
  %41 = load i64, ptr @rb_cAddrinfo, align 8, !tbaa !31
  call void @rb_define_method(i64 noundef %41, ptr noundef @.str.89, ptr noundef @addrinfo_ipv6_mc_orglocal_p, i32 noundef 0)
  %42 = load i64, ptr @rb_cAddrinfo, align 8, !tbaa !31
  call void @rb_define_method(i64 noundef %42, ptr noundef @.str.90, ptr noundef @addrinfo_ipv6_mc_global_p, i32 noundef 0)
  %43 = load i64, ptr @rb_cAddrinfo, align 8, !tbaa !31
  call void @rb_define_method(i64 noundef %43, ptr noundef @.str.91, ptr noundef @addrinfo_ipv6_to_ipv4, i32 noundef 0)
  %44 = load i64, ptr @rb_cAddrinfo, align 8, !tbaa !31
  call void @rb_define_method(i64 noundef %44, ptr noundef @.str.92, ptr noundef @addrinfo_unix_path, i32 noundef 0)
  %45 = load i64, ptr @rb_cAddrinfo, align 8, !tbaa !31
  call void @rb_define_method(i64 noundef %45, ptr noundef @.str.93, ptr noundef @addrinfo_to_sockaddr, i32 noundef 0)
  %46 = load i64, ptr @rb_cAddrinfo, align 8, !tbaa !31
  call void @rb_define_method(i64 noundef %46, ptr noundef @.str.94, ptr noundef @addrinfo_to_sockaddr, i32 noundef 0)
  %47 = load i64, ptr @rb_cAddrinfo, align 8, !tbaa !31
  call void @rb_define_method(i64 noundef %47, ptr noundef @.str.8, ptr noundef @addrinfo_getnameinfo, i32 noundef -1)
  %48 = load i64, ptr @rb_cAddrinfo, align 8, !tbaa !31
  call void @rb_define_method(i64 noundef %48, ptr noundef @.str.95, ptr noundef @addrinfo_mdump, i32 noundef 0)
  %49 = load i64, ptr @rb_cAddrinfo, align 8, !tbaa !31
  call void @rb_define_method(i64 noundef %49, ptr noundef @.str.96, ptr noundef @addrinfo_mload, i32 noundef 1)
  ret void
}