; Function Attrs: nounwind sspstrong uwtable
define void @rsock_init_addrinfo() local_unnamed_addr #0 {
  %.pr.i = load i64, ptr @rsock_init_addrinfo.rbimpl_id, align 8, !tbaa !35
  %.not1.i = icmp eq i64 %.pr.i, 0
  br i1 %.not1.i, label %.lr.ph.i, label %rbimpl_intern_const.exit

.lr.ph.i:                                         ; preds = %0, %.lr.ph.i
  %1 = tail call i64 @rb_intern2(ptr noundef nonnull @.str.54, i64 noundef 7) #21
  store i64 %1, ptr @rsock_init_addrinfo.rbimpl_id, align 8, !tbaa !35
  %.not.i = icmp eq i64 %1, 0
  br i1 %.not.i, label %.lr.ph.i, label %rbimpl_intern_const.exit, !llvm.loop !164

rbimpl_intern_const.exit:                         ; preds = %.lr.ph.i, %0
  %.lcssa.i = phi i64 [ %.pr.i, %0 ], [ %1, %.lr.ph.i ]
  store i64 %.lcssa.i, ptr @id_timeout, align 8, !tbaa !35
  %2 = load i64, ptr @rb_cObject, align 8, !tbaa !35
  %3 = tail call i64 @rb_define_class(ptr noundef nonnull @.str.55, i64 noundef %2) #21
  store i64 %3, ptr @rb_cAddrinfo, align 8, !tbaa !35
  tail call void @rb_define_alloc_func(i64 noundef %3, ptr noundef nonnull @addrinfo_s_allocate) #21
  %4 = load i64, ptr @rb_cAddrinfo, align 8, !tbaa !35
  tail call void @rb_define_method(i64 noundef %4, ptr noundef nonnull @.str.56, ptr noundef nonnull @addrinfo_initialize, i32 noundef -1) #21
  %5 = load i64, ptr @rb_cAddrinfo, align 8, !tbaa !35
  tail call void @rb_define_method(i64 noundef %5, ptr noundef nonnull @.str.57, ptr noundef nonnull @addrinfo_inspect, i32 noundef 0) #21
  %6 = load i64, ptr @rb_cAddrinfo, align 8, !tbaa !35
  tail call void @rb_define_method(i64 noundef %6, ptr noundef nonnull @.str.58, ptr noundef nonnull @rsock_addrinfo_inspect_sockaddr, i32 noundef 0) #21
  %7 = load i64, ptr @rb_cAddrinfo, align 8, !tbaa !35
  tail call void @rb_define_singleton_method(i64 noundef %7, ptr noundef nonnull @.str.6, ptr noundef nonnull @addrinfo_s_getaddrinfo, i32 noundef -1) #21
  %8 = load i64, ptr @rb_cAddrinfo, align 8, !tbaa !35
  tail call void @rb_define_singleton_method(i64 noundef %8, ptr noundef nonnull @.str.59, ptr noundef nonnull @addrinfo_s_ip, i32 noundef 1) #21
  %9 = load i64, ptr @rb_cAddrinfo, align 8, !tbaa !35
  tail call void @rb_define_singleton_method(i64 noundef %9, ptr noundef nonnull @.str.60, ptr noundef nonnull @addrinfo_s_tcp, i32 noundef 2) #21
  %10 = load i64, ptr @rb_cAddrinfo, align 8, !tbaa !35
  tail call void @rb_define_singleton_method(i64 noundef %10, ptr noundef nonnull @.str.61, ptr noundef nonnull @addrinfo_s_udp, i32 noundef 2) #21
  %11 = load i64, ptr @rb_cAddrinfo, align 8, !tbaa !35
  tail call void @rb_define_singleton_method(i64 noundef %11, ptr noundef nonnull @.str.62, ptr noundef nonnull @addrinfo_s_unix, i32 noundef -1) #21
  %12 = load i64, ptr @rb_cAddrinfo, align 8, !tbaa !35
  tail call void @rb_define_method(i64 noundef %12, ptr noundef nonnull @.str.63, ptr noundef nonnull @addrinfo_afamily, i32 noundef 0) #21
  %13 = load i64, ptr @rb_cAddrinfo, align 8, !tbaa !35
  tail call void @rb_define_method(i64 noundef %13, ptr noundef nonnull @.str.64, ptr noundef nonnull @addrinfo_pfamily, i32 noundef 0) #21
  %14 = load i64, ptr @rb_cAddrinfo, align 8, !tbaa !35
  tail call void @rb_define_method(i64 noundef %14, ptr noundef nonnull @.str.65, ptr noundef nonnull @addrinfo_socktype, i32 noundef 0) #21
  %15 = load i64, ptr @rb_cAddrinfo, align 8, !tbaa !35
  tail call void @rb_define_method(i64 noundef %15, ptr noundef nonnull @.str.66, ptr noundef nonnull @addrinfo_protocol, i32 noundef 0) #21
  %16 = load i64, ptr @rb_cAddrinfo, align 8, !tbaa !35
  tail call void @rb_define_method(i64 noundef %16, ptr noundef nonnull @.str.67, ptr noundef nonnull @addrinfo_canonname, i32 noundef 0) #21
  %17 = load i64, ptr @rb_cAddrinfo, align 8, !tbaa !35
  tail call void @rb_define_method(i64 noundef %17, ptr noundef nonnull @.str.68, ptr noundef nonnull @addrinfo_ipv4_p, i32 noundef 0) #21
  %18 = load i64, ptr @rb_cAddrinfo, align 8, !tbaa !35
  tail call void @rb_define_method(i64 noundef %18, ptr noundef nonnull @.str.69, ptr noundef nonnull @addrinfo_ipv6_p, i32 noundef 0) #21
  %19 = load i64, ptr @rb_cAddrinfo, align 8, !tbaa !35
  tail call void @rb_define_method(i64 noundef %19, ptr noundef nonnull @.str.70, ptr noundef nonnull @addrinfo_unix_p, i32 noundef 0) #21
  %20 = load i64, ptr @rb_cAddrinfo, align 8, !tbaa !35
  tail call void @rb_define_method(i64 noundef %20, ptr noundef nonnull @.str.71, ptr noundef nonnull @addrinfo_ip_p, i32 noundef 0) #21
  %21 = load i64, ptr @rb_cAddrinfo, align 8, !tbaa !35
  tail call void @rb_define_method(i64 noundef %21, ptr noundef nonnull @.str.72, ptr noundef nonnull @addrinfo_ip_unpack, i32 noundef 0) #21
  %22 = load i64, ptr @rb_cAddrinfo, align 8, !tbaa !35
  tail call void @rb_define_method(i64 noundef %22, ptr noundef nonnull @.str.73, ptr noundef nonnull @addrinfo_ip_address, i32 noundef 0) #21
  %23 = load i64, ptr @rb_cAddrinfo, align 8, !tbaa !35
  tail call void @rb_define_method(i64 noundef %23, ptr noundef nonnull @.str.74, ptr noundef nonnull @addrinfo_ip_port, i32 noundef 0) #21
  %24 = load i64, ptr @rb_cAddrinfo, align 8, !tbaa !35
  tail call void @rb_define_method(i64 noundef %24, ptr noundef nonnull @.str.75, ptr noundef nonnull @addrinfo_ipv4_private_p, i32 noundef 0) #21
  %25 = load i64, ptr @rb_cAddrinfo, align 8, !tbaa !35
  tail call void @rb_define_method(i64 noundef %25, ptr noundef nonnull @.str.76, ptr noundef nonnull @addrinfo_ipv4_loopback_p, i32 noundef 0) #21
  %26 = load i64, ptr @rb_cAddrinfo, align 8, !tbaa !35
  tail call void @rb_define_method(i64 noundef %26, ptr noundef nonnull @.str.77, ptr noundef nonnull @addrinfo_ipv4_multicast_p, i32 noundef 0) #21
  %27 = load i64, ptr @rb_cAddrinfo, align 8, !tbaa !35
  tail call void @rb_define_method(i64 noundef %27, ptr noundef nonnull @.str.78, ptr noundef nonnull @addrinfo_ipv6_unspecified_p, i32 noundef 0) #21
  %28 = load i64, ptr @rb_cAddrinfo, align 8, !tbaa !35
  tail call void @rb_define_method(i64 noundef %28, ptr noundef nonnull @.str.79, ptr noundef nonnull @addrinfo_ipv6_loopback_p, i32 noundef 0) #21
  %29 = load i64, ptr @rb_cAddrinfo, align 8, !tbaa !35
  tail call void @rb_define_method(i64 noundef %29, ptr noundef nonnull @.str.80, ptr noundef nonnull @addrinfo_ipv6_multicast_p, i32 noundef 0) #21
  %30 = load i64, ptr @rb_cAddrinfo, align 8, !tbaa !35
  tail call void @rb_define_method(i64 noundef %30, ptr noundef nonnull @.str.81, ptr noundef nonnull @addrinfo_ipv6_linklocal_p, i32 noundef 0) #21
  %31 = load i64, ptr @rb_cAddrinfo, align 8, !tbaa !35
  tail call void @rb_define_method(i64 noundef %31, ptr noundef nonnull @.str.82, ptr noundef nonnull @addrinfo_ipv6_sitelocal_p, i32 noundef 0) #21
  %32 = load i64, ptr @rb_cAddrinfo, align 8, !tbaa !35
  tail call void @rb_define_method(i64 noundef %32, ptr noundef nonnull @.str.83, ptr noundef nonnull @addrinfo_ipv6_unique_local_p, i32 noundef 0) #21
  %33 = load i64, ptr @rb_cAddrinfo, align 8, !tbaa !35
  tail call void @rb_define_method(i64 noundef %33, ptr noundef nonnull @.str.84, ptr noundef nonnull @addrinfo_ipv6_v4mapped_p, i32 noundef 0) #21
  %34 = load i64, ptr @rb_cAddrinfo, align 8, !tbaa !35
  tail call void @rb_define_method(i64 noundef %34, ptr noundef nonnull @.str.85, ptr noundef nonnull @addrinfo_ipv6_v4compat_p, i32 noundef 0) #21
  %35 = load i64, ptr @rb_cAddrinfo, align 8, !tbaa !35
  tail call void @rb_define_method(i64 noundef %35, ptr noundef nonnull @.str.86, ptr noundef nonnull @addrinfo_ipv6_mc_nodelocal_p, i32 noundef 0) #21
  %36 = load i64, ptr @rb_cAddrinfo, align 8, !tbaa !35
  tail call void @rb_define_method(i64 noundef %36, ptr noundef nonnull @.str.87, ptr noundef nonnull @addrinfo_ipv6_mc_linklocal_p, i32 noundef 0) #21
  %37 = load i64, ptr @rb_cAddrinfo, align 8, !tbaa !35
  tail call void @rb_define_method(i64 noundef %37, ptr noundef nonnull @.str.88, ptr noundef nonnull @addrinfo_ipv6_mc_sitelocal_p, i32 noundef 0) #21
  %38 = load i64, ptr @rb_cAddrinfo, align 8, !tbaa !35
  tail call void @rb_define_method(i64 noundef %38, ptr noundef nonnull @.str.89, ptr noundef nonnull @addrinfo_ipv6_mc_orglocal_p, i32 noundef 0) #21
  %39 = load i64, ptr @rb_cAddrinfo, align 8, !tbaa !35
  tail call void @rb_define_method(i64 noundef %39, ptr noundef nonnull @.str.90, ptr noundef nonnull @addrinfo_ipv6_mc_global_p, i32 noundef 0) #21
  %40 = load i64, ptr @rb_cAddrinfo, align 8, !tbaa !35
  tail call void @rb_define_method(i64 noundef %40, ptr noundef nonnull @.str.91, ptr noundef nonnull @addrinfo_ipv6_to_ipv4, i32 noundef 0) #21
  %41 = load i64, ptr @rb_cAddrinfo, align 8, !tbaa !35
  tail call void @rb_define_method(i64 noundef %41, ptr noundef nonnull @.str.92, ptr noundef nonnull @addrinfo_unix_path, i32 noundef 0) #21
  %42 = load i64, ptr @rb_cAddrinfo, align 8, !tbaa !35
  tail call void @rb_define_method(i64 noundef %42, ptr noundef nonnull @.str.93, ptr noundef nonnull @addrinfo_to_sockaddr, i32 noundef 0) #21
  %43 = load i64, ptr @rb_cAddrinfo, align 8, !tbaa !35
  tail call void @rb_define_method(i64 noundef %43, ptr noundef nonnull @.str.94, ptr noundef nonnull @addrinfo_to_sockaddr, i32 noundef 0) #21
  %44 = load i64, ptr @rb_cAddrinfo, align 8, !tbaa !35
  tail call void @rb_define_method(i64 noundef %44, ptr noundef nonnull @.str.8, ptr noundef nonnull @addrinfo_getnameinfo, i32 noundef -1) #21
  %45 = load i64, ptr @rb_cAddrinfo, align 8, !tbaa !35
  tail call void @rb_define_method(i64 noundef %45, ptr noundef nonnull @.str.95, ptr noundef nonnull @addrinfo_mdump, i32 noundef 0) #21
  %46 = load i64, ptr @rb_cAddrinfo, align 8, !tbaa !35
  tail call void @rb_define_method(i64 noundef %46, ptr noundef nonnull @.str.96, ptr noundef nonnull @addrinfo_mload, i32 noundef 1) #21
  ret void
}